target datalayout = "e-m:e-p270:32:32-p271:32:32-p272:64:64-i64:64-i128:128-f80:128-n8:16:32:64-S128"
target triple = "x86_64-pc-linux-gnu"

@.str.3 = private unnamed_addr constant [9 x i8] c"No error\00", align 1
@.str.4 = private unnamed_addr constant [18 x i8] c"Unspecified error\00", align 1
@.str.5 = private unnamed_addr constant [40 x i8] c"Unsupported file format or not RAW file\00", align 1
@.str.6 = private unnamed_addr constant [37 x i8] c"Request for nonexisting image number\00", align 1
@.str.7 = private unnamed_addr constant [37 x i8] c"Out of order call of libraw function\00", align 1
@.str.8 = private unnamed_addr constant [21 x i8] c"No thumbnail in file\00", align 1
@.str.9 = private unnamed_addr constant [29 x i8] c"Unsupported thumbnail format\00", align 1
@.str.10 = private unnamed_addr constant [40 x i8] c"No input stream, or input stream closed\00", align 1
@.str.11 = private unnamed_addr constant [45 x i8] c"Decoder not implemented for this data format\00", align 1
@.str.12 = private unnamed_addr constant [41 x i8] c"Request for nonexisting thumbnail number\00", align 1
@.str.13 = private unnamed_addr constant [35 x i8] c"Libraw internal mempool overflowed\00", align 1
@.str.14 = private unnamed_addr constant [20 x i8] c"Unsufficient memory\00", align 1
@.str.15 = private unnamed_addr constant [33 x i8] c"Corrupted data or unexpected EOF\00", align 1
@.str.16 = private unnamed_addr constant [19 x i8] c"Input/output error\00", align 1
@.str.17 = private unnamed_addr constant [27 x i8] c"Cancelled by user callback\00", align 1
@.str.18 = private unnamed_addr constant [13 x i8] c"Bad crop box\00", align 1
@.str.19 = private unnamed_addr constant [29 x i8] c"Image too big for processing\00", align 1
@.str.20 = private unnamed_addr constant [19 x i8] c"Unknown error code\00", align 1

; Function Attrs: mustprogress nounwind uwtable
define ptr @libraw_strerror(i32 noundef %0) #0 {
  %2 = alloca ptr, align 8
  %3 = alloca i32, align 4
  %4 = alloca i32, align 4
  %5 = alloca i32, align 4
  store i32 %0, ptr %3, align 4, !tbaa !12
  call void @llvm.lifetime.start.p0(i64 4, ptr %4) #18
  %6 = load i32, ptr %3, align 4, !tbaa !12
  store i32 %6, ptr %4, align 4, !tbaa !16
  %7 = load i32, ptr %4, align 4, !tbaa !16
  switch i32 %7, label %25 [
    i32 0, label %8
    i32 -1, label %9
    i32 -2, label %10
    i32 -3, label %11
    i32 -4, label %12
    i32 -5, label %13
    i32 -6, label %14
    i32 -7, label %15
    i32 -8, label %16
    i32 -9, label %17
    i32 -100013, label %18
    i32 -100007, label %19
    i32 -100008, label %20
    i32 -100009, label %21
    i32 -100010, label %22
    i32 -100011, label %23
    i32 -100012, label %24
  ]

8:                                                ; preds = %1
  store ptr @.str.3, ptr %2, align 8
  store i32 1, ptr %5, align 4
  br label %26

9:                                                ; preds = %1
  store ptr @.str.4, ptr %2, align 8
  store i32 1, ptr %5, align 4
  br label %26

10:                                               ; preds = %1
  store ptr @.str.5, ptr %2, align 8
  store i32 1, ptr %5, align 4
  br label %26

11:                                               ; preds = %1
  store ptr @.str.6, ptr %2, align 8
  store i32 1, ptr %5, align 4
  br label %26

12:                                               ; preds = %1
  store ptr @.str.7, ptr %2, align 8
  store i32 1, ptr %5, align 4
  br label %26

13:                                               ; preds = %1
  store ptr @.str.8, ptr %2, align 8
  store i32 1, ptr %5, align 4
  br label %26

14:                                               ; preds = %1
  store ptr @.str.9, ptr %2, align 8
  store i32 1, ptr %5, align 4
  br label %26

15:                                               ; preds = %1
  store ptr @.str.10, ptr %2, align 8
  store i32 1, ptr %5, align 4
  br label %26

16:                                               ; preds = %1
  store ptr @.str.11, ptr %2, align 8
  store i32 1, ptr %5, align 4
  br label %26

17:                                               ; preds = %1
  store ptr @.str.12, ptr %2, align 8
  store i32 1, ptr %5, align 4
  br label %26

18:                                               ; preds = %1
  store ptr @.str.13, ptr %2, align 8
  store i32 1, ptr %5, align 4
  br label %26

19:                                               ; preds = %1
  store ptr @.str.14, ptr %2, align 8
  store i32 1, ptr %5, align 4
  br label %26

20:                                               ; preds = %1
  store ptr @.str.15, ptr %2, align 8
  store i32 1, ptr %5, align 4
  br label %26

21:                                               ; preds = %1
  store ptr @.str.16, ptr %2, align 8
  store i32 1, ptr %5, align 4
  br label %26

22:                                               ; preds = %1
  store ptr @.str.17, ptr %2, align 8
  store i32 1, ptr %5, align 4
  br label %26

23:                                               ; preds = %1
  store ptr @.str.18, ptr %2, align 8
  store i32 1, ptr %5, align 4
  br label %26

24:                                               ; preds = %1
  store ptr @.str.19, ptr %2, align 8
  store i32 1, ptr %5, align 4
  br label %26

25:                                               ; preds = %1
  store ptr @.str.20, ptr %2, align 8
  store i32 1, ptr %5, align 4
  br label %26

26:                                               ; preds = %25, %24, %23, %22, %21, %20, %19, %18, %17, %16, %15, %14, %13, %12, %11, %10, %9, %8
  call void @llvm.lifetime.end.p0(i64 4, ptr %4) #18
  %27 = load ptr, ptr %2, align 8
  ret ptr %27
}

; Function Attrs: mustprogress nounwind uwtable
define noundef ptr @_ZN6LibRaw8strerrorEi(i32 noundef %0) #0 align 2 {
  %2 = alloca i32, align 4
  store i32 %0, ptr %2, align 4, !tbaa !12
  %3 = load i32, ptr %2, align 4, !tbaa !12
  %4 = call ptr @libraw_strerror(i32 noundef %3)
  ret ptr %4
}